target datalayout = "e-m:e-p270:32:32-p271:32:32-p272:64:64-i64:64-i128:128-f80:128-n8:16:32:64-S128"
target triple = "x86_64-pc-linux-gnu"

@_ZN4leanL4zeroE = internal constant i32 0, align 4

; Function Attrs: mustprogress nounwind uwtable
define hidden noundef i32 @_ZN4lean11mpn_compareEPKjmS1_m(ptr noundef %0, i64 noundef %1, ptr noundef %2, i64 noundef %3) #0 {
  %5 = alloca ptr, align 8
  %6 = alloca i64, align 8
  %7 = alloca ptr, align 8
  %8 = alloca i64, align 8
  %9 = alloca i32, align 4
  %10 = alloca i64, align 8
  %11 = alloca ptr, align 8
  %12 = alloca ptr, align 8
  store ptr %0, ptr %5, align 8, !tbaa !3
  store i64 %1, ptr %6, align 8, !tbaa !8
  store ptr %2, ptr %7, align 8, !tbaa !3
  store i64 %3, ptr %8, align 8, !tbaa !8
  call void @llvm.lifetime.start.p0(i64 4, ptr %9) #12
  store i32 0, ptr %9, align 4, !tbaa !10
  call void @llvm.lifetime.start.p0(i64 8, ptr %10) #12
  %13 = load i64, ptr %6, align 8, !tbaa !8
  %14 = load i64, ptr %8, align 8, !tbaa !8
  %15 = icmp ugt i64 %13, %14
  br i1 %15, label %16, label %18

16:                                               ; preds = %4
  %17 = load i64, ptr %6, align 8, !tbaa !8
  br label %20

18:                                               ; preds = %4
  %19 = load i64, ptr %8, align 8, !tbaa !8
  br label %20

20:                                               ; preds = %18, %16
  %21 = phi i64 [ %17, %16 ], [ %19, %18 ]
  %22 = sub i64 %21, 1
  store i64 %22, ptr %10, align 8, !tbaa !8
  br label %23

23:                                               ; preds = %67, %20
  %24 = load i64, ptr %10, align 8, !tbaa !8
  %25 = icmp ne i64 %24, -1
  br i1 %25, label %26, label %29

26:                                               ; preds = %23
  %27 = load i32, ptr %9, align 4, !tbaa !10
  %28 = icmp eq i32 %27, 0
  br label %29

29:                                               ; preds = %26, %23
  %30 = phi i1 [ false, %23 ], [ %28, %26 ]
  br i1 %30, label %31, label %70

31:                                               ; preds = %29
  call void @llvm.lifetime.start.p0(i64 8, ptr %11) #12
  %32 = load i64, ptr %10, align 8, !tbaa !8
  %33 = load i64, ptr %6, align 8, !tbaa !8
  %34 = icmp ult i64 %32, %33
  br i1 %34, label %35, label %39

35:                                               ; preds = %31
  %36 = load ptr, ptr %5, align 8, !tbaa !3
  %37 = load i64, ptr %10, align 8, !tbaa !8
  %38 = getelementptr inbounds nuw i32, ptr %36, i64 %37
  br label %40

39:                                               ; preds = %31
  br label %40

40:                                               ; preds = %39, %35
  %41 = phi ptr [ %38, %35 ], [ @_ZN4leanL4zeroE, %39 ]
  store ptr %41, ptr %11, align 8, !tbaa !3
  call void @llvm.lifetime.start.p0(i64 8, ptr %12) #12
  %42 = load i64, ptr %10, align 8, !tbaa !8
  %43 = load i64, ptr %8, align 8, !tbaa !8
  %44 = icmp ult i64 %42, %43
  br i1 %44, label %45, label %49

45:                                               ; preds = %40
  %46 = load ptr, ptr %7, align 8, !tbaa !3
  %47 = load i64, ptr %10, align 8, !tbaa !8
  %48 = getelementptr inbounds nuw i32, ptr %46, i64 %47
  br label %50

49:                                               ; preds = %40
  br label %50

50:                                               ; preds = %49, %45
  %51 = phi ptr [ %48, %45 ], [ @_ZN4leanL4zeroE, %49 ]
  store ptr %51, ptr %12, align 8, !tbaa !3
  %52 = load ptr, ptr %11, align 8, !tbaa !3
  %53 = load i32, ptr %52, align 4, !tbaa !10
  %54 = load ptr, ptr %12, align 8, !tbaa !3
  %55 = load i32, ptr %54, align 4, !tbaa !10
  %56 = icmp ugt i32 %53, %55
  br i1 %56, label %57, label %58

57:                                               ; preds = %50
  store i32 1, ptr %9, align 4, !tbaa !10
  br label %66

58:                                               ; preds = %50
  %59 = load ptr, ptr %11, align 8, !tbaa !3
  %60 = load i32, ptr %59, align 4, !tbaa !10
  %61 = load ptr, ptr %12, align 8, !tbaa !3
  %62 = load i32, ptr %61, align 4, !tbaa !10
  %63 = icmp ult i32 %60, %62
  br i1 %63, label %64, label %65

64:                                               ; preds = %58
  store i32 -1, ptr %9, align 4, !tbaa !10
  br label %65

65:                                               ; preds = %64, %58
  br label %66

66:                                               ; preds = %65, %57
  call void @llvm.lifetime.end.p0(i64 8, ptr %12) #12
  call void @llvm.lifetime.end.p0(i64 8, ptr %11) #12
  br label %67

67:                                               ; preds = %66
  %68 = load i64, ptr %10, align 8, !tbaa !8
  %69 = add i64 %68, -1
  store i64 %69, ptr %10, align 8, !tbaa !8
  br label %23, !llvm.loop !12

70:                                               ; preds = %29
  %71 = load i32, ptr %9, align 4, !tbaa !10
  call void @llvm.lifetime.end.p0(i64 8, ptr %10) #12
  call void @llvm.lifetime.end.p0(i64 4, ptr %9) #12
  ret i32 %71
}