; Function Attrs: mustprogress nofree norecurse nosync nounwind willreturn memory(read, inaccessiblemem: none) uwtable
define hidden noundef range(i32 -1, 2) i32 @_ZN4lean11mpn_compareEPKjmS1_m(ptr noundef readonly captures(none) %0, i64 noundef %1, ptr noundef readonly captures(none) %2, i64 noundef %3) local_unnamed_addr #0 {
  %5 = tail call i64 @llvm.umax.i64(i64 %1, i64 %3)
  %.not = icmp eq i64 %5, 0
  br i1 %.not, label %._crit_edge, label %.lr.ph

.lr.ph:                                           ; preds = %4, %.lr.ph
  %.019.in22 = phi i64 [ %.019, %.lr.ph ], [ %5, %4 ]
  %.019 = add i64 %.019.in22, -1
  %6 = icmp ult i64 %.019, %1
  %7 = getelementptr inbounds nuw i32, ptr %0, i64 %.019
  %8 = select i1 %6, ptr %7, ptr @_ZN4leanL4zeroE
  %9 = icmp ult i64 %.019, %3
  %10 = getelementptr inbounds nuw i32, ptr %2, i64 %.019
  %11 = select i1 %9, ptr %10, ptr @_ZN4leanL4zeroE
  %12 = load i32, ptr %8, align 4, !tbaa !3
  %13 = load i32, ptr %11, align 4, !tbaa !3
  %14 = icmp ne i64 %.019, 0
  %15 = icmp eq i32 %12, %13
  %16 = and i1 %14, %15
  br i1 %16, label %.lr.ph, label %._crit_edge.loopexit, !llvm.loop !7

._crit_edge.loopexit:                             ; preds = %.lr.ph
  %.1 = tail call i32 @llvm.ucmp.i32.i32(i32 %12, i32 %13)
  br label %._crit_edge

._crit_edge:                                      ; preds = %._crit_edge.loopexit, %4
  %.0.lcssa = phi i32 [ 0, %4 ], [ %.1, %._crit_edge.loopexit ]
  ret i32 %.0.lcssa
}